target datalayout = "e-m:e-p270:32:32-p271:32:32-p272:64:64-i64:64-i128:128-f80:128-n8:16:32:64-S128"
target triple = "x86_64-pc-linux-gnu"

@.str = private unnamed_addr constant [46 x i8] c"../openssl/crypto/encode_decode/encoder_lib.c\00", align 1
@__const.ossl_bio_print_labeled_bignum.spaces = private unnamed_addr constant [5 x i8] c"    \00", align 1
@.str.2 = private unnamed_addr constant [2 x i8] c" \00", align 1
@.str.3 = private unnamed_addr constant [1 x i8] zeroinitializer, align 1
@.str.4 = private unnamed_addr constant [7 x i8] c"%s%s0\0A\00", align 1
@.str.5 = private unnamed_addr constant [2 x i8] c"-\00", align 1
@.str.6 = private unnamed_addr constant [21 x i8] c"%s%s%s%lu (%s0x%lx)\0A\00", align 1
@.str.7 = private unnamed_addr constant [12 x i8] c" (Negative)\00", align 1
@.str.8 = private unnamed_addr constant [6 x i8] c"%s%s\0A\00", align 1
@.str.9 = private unnamed_addr constant [3 x i8] c"%s\00", align 1
@.str.10 = private unnamed_addr constant [5 x i8] c"%02x\00", align 1
@.str.11 = private unnamed_addr constant [5 x i8] c":\0A%s\00", align 1
@.str.12 = private unnamed_addr constant [7 x i8] c"%s%c%c\00", align 1
@.str.13 = private unnamed_addr constant [2 x i8] c":\00", align 1
@.str.14 = private unnamed_addr constant [2 x i8] c"\0A\00", align 1

; Function Attrs: nounwind uwtable
define i32 @ossl_bio_print_labeled_bignum(ptr noundef %0, ptr noundef %1, ptr noundef %2) #0 {
  %4 = alloca i32, align 4
  %5 = alloca ptr, align 8
  %6 = alloca ptr, align 8
  %7 = alloca ptr, align 8
  %8 = alloca i32, align 4
  %9 = alloca i32, align 4
  %10 = alloca ptr, align 8
  %11 = alloca ptr, align 8
  %12 = alloca [5 x i8], align 1
  %13 = alloca ptr, align 8
  %14 = alloca ptr, align 8
  %15 = alloca i32, align 4
  %16 = alloca i32, align 4
  %17 = alloca ptr, align 8
  %18 = alloca i32, align 4
  %19 = alloca i32, align 4
  %20 = alloca i32, align 4
  %21 = alloca i32, align 4
  store ptr %0, ptr %5, align 8, !tbaa !8
  store ptr %1, ptr %6, align 8, !tbaa !36
  store ptr %2, ptr %7, align 8, !tbaa !83
  call void @llvm.lifetime.start.p0(i64 4, ptr %8) #8
  store i32 0, ptr %8, align 4, !tbaa !32
  call void @llvm.lifetime.start.p0(i64 4, ptr %9) #8
  store i32 0, ptr %9, align 4, !tbaa !32
  call void @llvm.lifetime.start.p0(i64 8, ptr %10) #8
  store ptr null, ptr %10, align 8, !tbaa !36
  call void @llvm.lifetime.start.p0(i64 8, ptr %11) #8
  call void @llvm.lifetime.start.p0(i64 5, ptr %12) #8
  call void @llvm.memcpy.p0.p0.i64(ptr align 1 %12, ptr align 1 @__const.ossl_bio_print_labeled_bignum.spaces, i64 5, i1 false)
  call void @llvm.lifetime.start.p0(i64 8, ptr %13) #8
  store ptr @.str.2, ptr %13, align 8, !tbaa !36
  call void @llvm.lifetime.start.p0(i64 8, ptr %14) #8
  store ptr @.str.3, ptr %14, align 8, !tbaa !36
  call void @llvm.lifetime.start.p0(i64 4, ptr %15) #8
  %22 = load ptr, ptr %7, align 8, !tbaa !83
  %23 = icmp eq ptr %22, null
  br i1 %23, label %24, label %25

24:                                               ; preds = %3
  store i32 0, ptr %4, align 4
  store i32 1, ptr %16, align 4
  br label %169

25:                                               ; preds = %3
  %26 = load ptr, ptr %6, align 8, !tbaa !36
  %27 = icmp eq ptr %26, null
  br i1 %27, label %28, label %29

28:                                               ; preds = %25
  store ptr @.str.3, ptr %6, align 8, !tbaa !36
  store ptr @.str.3, ptr %13, align 8, !tbaa !36
  br label %29

29:                                               ; preds = %28, %25
  %30 = load ptr, ptr %7, align 8, !tbaa !83
  %31 = call i32 @BN_is_zero(ptr noundef %30)
  %32 = icmp ne i32 %31, 0
  br i1 %32, label %33, label %38

33:                                               ; preds = %29
  %34 = load ptr, ptr %5, align 8, !tbaa !8
  %35 = load ptr, ptr %6, align 8, !tbaa !36
  %36 = load ptr, ptr %13, align 8, !tbaa !36
  %37 = call i32 (ptr, ptr, ...) @BIO_printf(ptr noundef %34, ptr noundef @.str.4, ptr noundef %35, ptr noundef %36)
  store i32 %37, ptr %4, align 4
  store i32 1, ptr %16, align 4
  br label %169

38:                                               ; preds = %29
  %39 = load ptr, ptr %7, align 8, !tbaa !83
  %40 = call i32 @BN_num_bits(ptr noundef %39)
  %41 = add nsw i32 %40, 7
  %42 = sdiv i32 %41, 8
  %43 = icmp sle i32 %42, 8
  br i1 %43, label %44, label %64

44:                                               ; preds = %38
  call void @llvm.lifetime.start.p0(i64 8, ptr %17) #8
  %45 = load ptr, ptr %7, align 8, !tbaa !83
  %46 = call ptr @bn_get_words(ptr noundef %45)
  store ptr %46, ptr %17, align 8, !tbaa !67
  %47 = load ptr, ptr %7, align 8, !tbaa !83
  %48 = call i32 @BN_is_negative(ptr noundef %47)
  %49 = icmp ne i32 %48, 0
  br i1 %49, label %50, label %51

50:                                               ; preds = %44
  store ptr @.str.5, ptr %14, align 8, !tbaa !36
  br label %51

51:                                               ; preds = %50, %44
  %52 = load ptr, ptr %5, align 8, !tbaa !8
  %53 = load ptr, ptr %6, align 8, !tbaa !36
  %54 = load ptr, ptr %13, align 8, !tbaa !36
  %55 = load ptr, ptr %14, align 8, !tbaa !36
  %56 = load ptr, ptr %17, align 8, !tbaa !67
  %57 = getelementptr inbounds i64, ptr %56, i64 0
  %58 = load i64, ptr %57, align 8, !tbaa !47
  %59 = load ptr, ptr %14, align 8, !tbaa !36
  %60 = load ptr, ptr %17, align 8, !tbaa !67
  %61 = getelementptr inbounds i64, ptr %60, i64 0
  %62 = load i64, ptr %61, align 8, !tbaa !47
  %63 = call i32 (ptr, ptr, ...) @BIO_printf(ptr noundef %52, ptr noundef @.str.6, ptr noundef %53, ptr noundef %54, ptr noundef %55, i64 noundef %58, ptr noundef %59, i64 noundef %62)
  store i32 %63, ptr %4, align 4
  store i32 1, ptr %16, align 4
  call void @llvm.lifetime.end.p0(i64 8, ptr %17) #8
  br label %169

64:                                               ; preds = %38
  %65 = load ptr, ptr %7, align 8, !tbaa !83
  %66 = call ptr @BN_bn2hex(ptr noundef %65)
  store ptr %66, ptr %10, align 8, !tbaa !36
  %67 = load ptr, ptr %10, align 8, !tbaa !36
  %68 = icmp eq ptr %67, null
  br i1 %68, label %69, label %70

69:                                               ; preds = %64
  store i32 0, ptr %4, align 4
  store i32 1, ptr %16, align 4
  br label %169

70:                                               ; preds = %64
  %71 = load ptr, ptr %10, align 8, !tbaa !36
  store ptr %71, ptr %11, align 8, !tbaa !36
  %72 = load ptr, ptr %11, align 8, !tbaa !36
  %73 = load i8, ptr %72, align 1, !tbaa !85
  %74 = sext i8 %73 to i32
  %75 = icmp eq i32 %74, 45
  br i1 %75, label %76, label %79

76:                                               ; preds = %70
  %77 = load ptr, ptr %11, align 8, !tbaa !36
  %78 = getelementptr inbounds nuw i8, ptr %77, i32 1
  store ptr %78, ptr %11, align 8, !tbaa !36
  store ptr @.str.7, ptr %14, align 8, !tbaa !36
  br label %79

79:                                               ; preds = %76, %70
  %80 = load ptr, ptr %5, align 8, !tbaa !8
  %81 = load ptr, ptr %6, align 8, !tbaa !36
  %82 = load ptr, ptr %14, align 8, !tbaa !36
  %83 = call i32 (ptr, ptr, ...) @BIO_printf(ptr noundef %80, ptr noundef @.str.8, ptr noundef %81, ptr noundef %82)
  %84 = icmp sle i32 %83, 0
  br i1 %84, label %85, label %86

85:                                               ; preds = %79
  br label %166

86:                                               ; preds = %79
  store i32 0, ptr %15, align 4, !tbaa !32
  %87 = load ptr, ptr %5, align 8, !tbaa !8
  %88 = getelementptr inbounds [5 x i8], ptr %12, i64 0, i64 0
  %89 = call i32 (ptr, ptr, ...) @BIO_printf(ptr noundef %87, ptr noundef @.str.9, ptr noundef %88)
  %90 = icmp sle i32 %89, 0
  br i1 %90, label %91, label %92

91:                                               ; preds = %86
  br label %166

92:                                               ; preds = %86
  %93 = load ptr, ptr %11, align 8, !tbaa !36
  %94 = load i8, ptr %93, align 1, !tbaa !85
  %95 = sext i8 %94 to i32
  %96 = icmp sge i32 %95, 56
  br i1 %96, label %97, label %105

97:                                               ; preds = %92
  %98 = load ptr, ptr %5, align 8, !tbaa !8
  %99 = call i32 (ptr, ptr, ...) @BIO_printf(ptr noundef %98, ptr noundef @.str.10, i32 noundef 0)
  %100 = icmp sle i32 %99, 0
  br i1 %100, label %101, label %102

101:                                              ; preds = %97
  br label %166

102:                                              ; preds = %97
  %103 = load i32, ptr %15, align 4, !tbaa !32
  %104 = add nsw i32 %103, 1
  store i32 %104, ptr %15, align 4, !tbaa !32
  store i32 1, ptr %9, align 4, !tbaa !32
  br label %105

105:                                              ; preds = %102, %92
  br label %106

106:                                              ; preds = %155, %105
  %107 = load ptr, ptr %11, align 8, !tbaa !36
  %108 = load i8, ptr %107, align 1, !tbaa !85
  %109 = sext i8 %108 to i32
  %110 = icmp ne i32 %109, 0
  br i1 %110, label %111, label %160

111:                                              ; preds = %106
  %112 = load i32, ptr %15, align 4, !tbaa !32
  %113 = srem i32 %112, 15
  %114 = icmp eq i32 %113, 0
  br i1 %114, label %115, label %125

115:                                              ; preds = %111
  %116 = load i32, ptr %15, align 4, !tbaa !32
  %117 = icmp sgt i32 %116, 0
  br i1 %117, label %118, label %125

118:                                              ; preds = %115
  %119 = load ptr, ptr %5, align 8, !tbaa !8
  %120 = getelementptr inbounds [5 x i8], ptr %12, i64 0, i64 0
  %121 = call i32 (ptr, ptr, ...) @BIO_printf(ptr noundef %119, ptr noundef @.str.11, ptr noundef %120)
  %122 = icmp sle i32 %121, 0
  br i1 %122, label %123, label %124

123:                                              ; preds = %118
  br label %166

124:                                              ; preds = %118
  store i32 0, ptr %9, align 4, !tbaa !32
  br label %125

125:                                              ; preds = %124, %115, %111
  %126 = load ptr, ptr %5, align 8, !tbaa !8
  %127 = load i32, ptr %9, align 4, !tbaa !32
  %128 = icmp ne i32 %127, 0
  %129 = select i1 %128, ptr @.str.13, ptr @.str.3
  call void @llvm.lifetime.start.p0(i64 4, ptr %18) #8
  %130 = call ptr @__ctype_tolower_loc() #9
  %131 = load ptr, ptr %130, align 8, !tbaa !86
  %132 = load ptr, ptr %11, align 8, !tbaa !36
  %133 = getelementptr inbounds i8, ptr %132, i64 0
  %134 = load i8, ptr %133, align 1, !tbaa !85
  %135 = zext i8 %134 to i32
  %136 = sext i32 %135 to i64
  %137 = getelementptr inbounds i32, ptr %131, i64 %136
  %138 = load i32, ptr %137, align 4, !tbaa !32
  store i32 %138, ptr %18, align 4, !tbaa !32
  %139 = load i32, ptr %18, align 4, !tbaa !32
  store i32 %139, ptr %19, align 4, !tbaa !32
  call void @llvm.lifetime.end.p0(i64 4, ptr %18) #8
  %140 = load i32, ptr %19, align 4, !tbaa !32
  call void @llvm.lifetime.start.p0(i64 4, ptr %20) #8
  %141 = call ptr @__ctype_tolower_loc() #9
  %142 = load ptr, ptr %141, align 8, !tbaa !86
  %143 = load ptr, ptr %11, align 8, !tbaa !36
  %144 = getelementptr inbounds i8, ptr %143, i64 1
  %145 = load i8, ptr %144, align 1, !tbaa !85
  %146 = zext i8 %145 to i32
  %147 = sext i32 %146 to i64
  %148 = getelementptr inbounds i32, ptr %142, i64 %147
  %149 = load i32, ptr %148, align 4, !tbaa !32
  store i32 %149, ptr %20, align 4, !tbaa !32
  %150 = load i32, ptr %20, align 4, !tbaa !32
  store i32 %150, ptr %21, align 4, !tbaa !32
  call void @llvm.lifetime.end.p0(i64 4, ptr %20) #8
  %151 = load i32, ptr %21, align 4, !tbaa !32
  %152 = call i32 (ptr, ptr, ...) @BIO_printf(ptr noundef %126, ptr noundef @.str.12, ptr noundef %129, i32 noundef %140, i32 noundef %151)
  %153 = icmp sle i32 %152, 0
  br i1 %153, label %154, label %155

154:                                              ; preds = %125
  br label %166

155:                                              ; preds = %125
  %156 = load i32, ptr %15, align 4, !tbaa !32
  %157 = add nsw i32 %156, 1
  store i32 %157, ptr %15, align 4, !tbaa !32
  %158 = load ptr, ptr %11, align 8, !tbaa !36
  %159 = getelementptr inbounds i8, ptr %158, i64 2
  store ptr %159, ptr %11, align 8, !tbaa !36
  store i32 1, ptr %9, align 4, !tbaa !32
  br label %106, !llvm.loop !88

160:                                              ; preds = %106
  %161 = load ptr, ptr %5, align 8, !tbaa !8
  %162 = call i32 (ptr, ptr, ...) @BIO_printf(ptr noundef %161, ptr noundef @.str.14)
  %163 = icmp sle i32 %162, 0
  br i1 %163, label %164, label %165

164:                                              ; preds = %160
  br label %166

165:                                              ; preds = %160
  store i32 1, ptr %8, align 4, !tbaa !32
  br label %166

166:                                              ; preds = %165, %164, %154, %123, %101, %91, %85
  %167 = load ptr, ptr %10, align 8, !tbaa !36
  call void @CRYPTO_free(ptr noundef %167, ptr noundef @.str, i32 noundef 776)
  %168 = load i32, ptr %8, align 4, !tbaa !32
  store i32 %168, ptr %4, align 4
  store i32 1, ptr %16, align 4
  br label %169

169:                                              ; preds = %166, %69, %51, %33, %24
  call void @llvm.lifetime.end.p0(i64 4, ptr %15) #8
  call void @llvm.lifetime.end.p0(i64 8, ptr %14) #8
  call void @llvm.lifetime.end.p0(i64 8, ptr %13) #8
  call void @llvm.lifetime.end.p0(i64 5, ptr %12) #8
  call void @llvm.lifetime.end.p0(i64 8, ptr %11) #8
  call void @llvm.lifetime.end.p0(i64 8, ptr %10) #8
  call void @llvm.lifetime.end.p0(i64 4, ptr %9) #8
  call void @llvm.lifetime.end.p0(i64 4, ptr %8) #8
  %170 = load i32, ptr %4, align 4
  ret i32 %170
}