; Function Attrs: nounwind uwtable
define i32 @ossl_bio_print_labeled_bignum(ptr noundef %0, ptr noundef %1, ptr noundef %2) local_unnamed_addr #0 {
  %4 = alloca [5 x i8], align 1
  call void @llvm.lifetime.start.p0(i64 5, ptr nonnull %4) #8
  call void @llvm.memcpy.p0.p0.i64(ptr noundef nonnull align 1 dereferenceable(5) %4, ptr noundef nonnull align 1 dereferenceable(5) @.str.16, i64 5, i1 false)
  %5 = icmp eq ptr %2, null
  br i1 %5, label %66, label %6

6:                                                ; preds = %3
  %7 = icmp eq ptr %1, null
  %spec.select = select i1 %7, ptr @.str.3, ptr @.str.2
  %spec.select62 = select i1 %7, ptr @.str.3, ptr %1
  %8 = tail call i32 @BN_is_zero(ptr noundef nonnull %2) #8
  %.not = icmp eq i32 %8, 0
  br i1 %.not, label %11, label %9

9:                                                ; preds = %6
  %10 = tail call i32 (ptr, ptr, ...) @BIO_printf(ptr noundef %0, ptr noundef nonnull @.str.4, ptr noundef nonnull %spec.select62, ptr noundef nonnull %spec.select) #8
  br label %66

11:                                               ; preds = %6
  %12 = tail call i32 @BN_num_bits(ptr noundef nonnull %2) #8
  %13 = icmp slt i32 %12, 65
  br i1 %13, label %14, label %19

14:                                               ; preds = %11
  %15 = tail call ptr @bn_get_words(ptr noundef nonnull %2) #8
  %16 = tail call i32 @BN_is_negative(ptr noundef nonnull %2) #8
  %.not61 = icmp eq i32 %16, 0
  %spec.select63 = select i1 %.not61, ptr @.str.3, ptr @.str.5
  %17 = load i64, ptr %15, align 8, !tbaa !45
  %18 = tail call i32 (ptr, ptr, ...) @BIO_printf(ptr noundef %0, ptr noundef nonnull @.str.6, ptr noundef nonnull %spec.select62, ptr noundef nonnull %spec.select, ptr noundef nonnull %spec.select63, i64 noundef %17, ptr noundef nonnull %spec.select63, i64 noundef %17) #8
  br label %66

19:                                               ; preds = %11
  %20 = tail call ptr @BN_bn2hex(ptr noundef nonnull %2) #8
  %21 = icmp eq ptr %20, null
  br i1 %21, label %66, label %22

22:                                               ; preds = %19
  %23 = load i8, ptr %20, align 1, !tbaa !62
  %24 = icmp eq i8 %23, 45
  %spec.select64.idx = zext i1 %24 to i64
  %spec.select64 = getelementptr inbounds nuw i8, ptr %20, i64 %spec.select64.idx
  %spec.select65 = select i1 %24, ptr @.str.7, ptr @.str.3
  %25 = tail call i32 (ptr, ptr, ...) @BIO_printf(ptr noundef %0, ptr noundef nonnull @.str.8, ptr noundef nonnull %spec.select62, ptr noundef nonnull %spec.select65) #8
  %26 = icmp slt i32 %25, 1
  br i1 %26, label %.loopexit, label %27

27:                                               ; preds = %22
  %28 = call i32 (ptr, ptr, ...) @BIO_printf(ptr noundef %0, ptr noundef nonnull @.str.9, ptr noundef nonnull %4) #8
  %29 = icmp slt i32 %28, 1
  br i1 %29, label %.loopexit, label %30

30:                                               ; preds = %27
  %31 = load i8, ptr %spec.select64, align 1, !tbaa !62
  %32 = icmp slt i8 %31, 56
  br i1 %32, label %36, label %33

33:                                               ; preds = %30
  %34 = call i32 (ptr, ptr, ...) @BIO_printf(ptr noundef %0, ptr noundef nonnull @.str.10, i32 noundef 0) #8
  %35 = icmp slt i32 %34, 1
  br i1 %35, label %.loopexit, label %._crit_edge73

._crit_edge73:                                    ; preds = %33
  %.pre = load i8, ptr %spec.select64, align 1, !tbaa !62
  br label %36

36:                                               ; preds = %._crit_edge73, %30
  %37 = phi i8 [ %31, %30 ], [ %.pre, %._crit_edge73 ]
  %.048 = phi i32 [ 0, %30 ], [ 1, %._crit_edge73 ]
  %.not5969 = icmp eq i8 %37, 0
  br i1 %.not5969, label %._crit_edge, label %.lr.ph.preheader

.lr.ph.preheader:                                 ; preds = %36
  %38 = select i1 %32, ptr @.str.3, ptr @.str.13
  br label %.lr.ph

.lr.ph:                                           ; preds = %.lr.ph.preheader, %60
  %39 = phi i8 [ %63, %60 ], [ %37, %.lr.ph.preheader ]
  %.172 = phi ptr [ @.str.13, %60 ], [ %38, %.lr.ph.preheader ]
  %.15071 = phi i32 [ %61, %60 ], [ %.048, %.lr.ph.preheader ]
  %.15570 = phi ptr [ %62, %60 ], [ %spec.select64, %.lr.ph.preheader ]
  %40 = urem i32 %.15071, 15
  %41 = icmp eq i32 %40, 0
  %42 = icmp ne i32 %.15071, 0
  %or.cond = and i1 %42, %41
  br i1 %or.cond, label %43, label %.thread

43:                                               ; preds = %.lr.ph
  %44 = call i32 (ptr, ptr, ...) @BIO_printf(ptr noundef %0, ptr noundef nonnull @.str.11, ptr noundef nonnull %4) #8
  %45 = icmp slt i32 %44, 1
  br i1 %45, label %.loopexit, label %..thread_crit_edge

..thread_crit_edge:                               ; preds = %43
  %.pre74.pre = load i8, ptr %.15570, align 1, !tbaa !62
  br label %.thread

.thread:                                          ; preds = %.lr.ph, %..thread_crit_edge
  %46 = phi i8 [ %.pre74.pre, %..thread_crit_edge ], [ %39, %.lr.ph ]
  %47 = phi ptr [ @.str.3, %..thread_crit_edge ], [ %.172, %.lr.ph ]
  %48 = tail call ptr @__ctype_tolower_loc() #9
  %49 = load ptr, ptr %48, align 8, !tbaa !63
  %50 = zext i8 %46 to i64
  %51 = getelementptr inbounds nuw i32, ptr %49, i64 %50
  %52 = load i32, ptr %51, align 4, !tbaa !43
  %53 = getelementptr inbounds nuw i8, ptr %.15570, i64 1
  %54 = load i8, ptr %53, align 1, !tbaa !62
  %55 = zext i8 %54 to i64
  %56 = getelementptr inbounds nuw i32, ptr %49, i64 %55
  %57 = load i32, ptr %56, align 4, !tbaa !43
  %58 = call i32 (ptr, ptr, ...) @BIO_printf(ptr noundef %0, ptr noundef nonnull @.str.12, ptr noundef nonnull %47, i32 noundef %52, i32 noundef %57) #8
  %59 = icmp slt i32 %58, 1
  br i1 %59, label %.loopexit, label %60

60:                                               ; preds = %.thread
  %61 = add nuw nsw i32 %.15071, 1
  %62 = getelementptr inbounds nuw i8, ptr %.15570, i64 2
  %63 = load i8, ptr %62, align 1, !tbaa !62
  %.not59 = icmp eq i8 %63, 0
  br i1 %.not59, label %._crit_edge, label %.lr.ph, !llvm.loop !65

._crit_edge:                                      ; preds = %60, %36
  %64 = call i32 (ptr, ptr, ...) @BIO_printf(ptr noundef %0, ptr noundef nonnull @.str.14) #8
  %65 = icmp sgt i32 %64, 0
  %spec.select66 = zext i1 %65 to i32
  br label %.loopexit

.loopexit:                                        ; preds = %.thread, %43, %._crit_edge, %33, %27, %22
  %.047 = phi i32 [ 0, %22 ], [ 0, %27 ], [ 0, %33 ], [ %spec.select66, %._crit_edge ], [ 0, %43 ], [ 0, %.thread ]
  call void @CRYPTO_free(ptr noundef nonnull %20, ptr noundef nonnull @.str, i32 noundef 776) #8
  br label %66

66:                                               ; preds = %19, %3, %.loopexit, %14, %9
  %.0 = phi i32 [ %10, %9 ], [ %18, %14 ], [ %.047, %.loopexit ], [ 0, %3 ], [ 0, %19 ]
  call void @llvm.lifetime.end.p0(i64 5, ptr nonnull %4) #8
  ret i32 %.0
}